target datalayout = "e-m:e-p270:32:32-p271:32:32-p272:64:64-i64:64-i128:128-f80:128-n8:16:32:64-S128"
target triple = "x86_64-unknown-linux-gnu"

%class.btSimpleBroadphase = type { %class.btBroadphaseInterface, i32, i32, i32, ptr, ptr, i32, ptr, i8, i32 }
%class.btBroadphaseInterface = type { ptr }
%struct.btSimpleBroadphaseProxy = type { %struct.btBroadphaseProxy.base, i32 }
%struct.btBroadphaseProxy.base = type <{ ptr, i32, i32, i32, %class.btVector3, %class.btVector3 }>
%class.btVector3 = type { [4 x float] }
%struct.btBroadphaseProxy = type <{ ptr, i32, i32, i32, %class.btVector3, %class.btVector3, [4 x i8] }>

; Function Attrs: mustprogress nounwind uwtable
define linkonce_odr dso_local noundef nonnull align 4 dereferenceable(4) ptr @_ZNK9btVector34getYEv(ptr noundef nonnull align 4 dereferenceable(16) %this) #1 comdat align 2 {
entry:
  %this.addr = alloca ptr, align 8
  store ptr %this, ptr %this.addr, align 8
  %this1 = load ptr, ptr %this.addr, align 8
  %m_floats = getelementptr inbounds %class.btVector3, ptr %this1, i32 0, i32 0
  %arrayidx = getelementptr inbounds [4 x float], ptr %m_floats, i64 0, i64 1
  ret ptr %arrayidx
}

; Function Attrs: mustprogress nounwind uwtable
define linkonce_odr dso_local noundef nonnull align 4 dereferenceable(4) ptr @_ZNK9btVector34getZEv(ptr noundef nonnull align 4 dereferenceable(16) %this) #1 comdat align 2 {
entry:
  %this.addr = alloca ptr, align 8
  store ptr %this, ptr %this.addr, align 8
  %this1 = load ptr, ptr %this.addr, align 8
  %m_floats = getelementptr inbounds %class.btVector3, ptr %this1, i32 0, i32 0
  %arrayidx = getelementptr inbounds [4 x float], ptr %m_floats, i64 0, i64 2
  ret ptr %arrayidx
}

; Function Attrs: mustprogress nounwind uwtable
define linkonce_odr dso_local noundef nonnull align 4 dereferenceable(4) ptr @_ZNK9btVector34getXEv(ptr noundef nonnull align 4 dereferenceable(16) %this) #1 comdat align 2 {
entry:
  %this.addr = alloca ptr, align 8
  store ptr %this, ptr %this.addr, align 8
  %this1 = load ptr, ptr %this.addr, align 8
  %m_floats = getelementptr inbounds %class.btVector3, ptr %this1, i32 0, i32 0
  %arrayidx = getelementptr inbounds [4 x float], ptr %m_floats, i64 0, i64 0
  ret ptr %arrayidx
}

; Function Attrs: mustprogress uwtable
define linkonce_odr dso_local noundef zeroext i1 @_Z20TestAabbAgainstAabb2RK9btVector3S1_S1_S1_(ptr noundef nonnull align 4 dereferenceable(16) %aabbMin1, ptr noundef nonnull align 4 dereferenceable(16) %aabbMax1, ptr noundef nonnull align 4 dereferenceable(16) %aabbMin2, ptr noundef nonnull align 4 dereferenceable(16) %aabbMax2) #2 comdat {
entry:
  %aabbMin1.addr = alloca ptr, align 8
  %aabbMax1.addr = alloca ptr, align 8
  %aabbMin2.addr = alloca ptr, align 8
  %aabbMax2.addr = alloca ptr, align 8
  %overlap = alloca i8, align 1
  store ptr %aabbMin1, ptr %aabbMin1.addr, align 8
  store ptr %aabbMax1, ptr %aabbMax1.addr, align 8
  store ptr %aabbMin2, ptr %aabbMin2.addr, align 8
  store ptr %aabbMax2, ptr %aabbMax2.addr, align 8
  store i8 1, ptr %overlap, align 1
  %0 = load ptr, ptr %aabbMin1.addr, align 8
  %call = call noundef nonnull align 4 dereferenceable(4) ptr @_ZNK9btVector34getXEv(ptr noundef nonnull align 4 dereferenceable(16) %0)
  %1 = load float, ptr %call, align 4
  %2 = load ptr, ptr %aabbMax2.addr, align 8
  %call1 = call noundef nonnull align 4 dereferenceable(4) ptr @_ZNK9btVector34getXEv(ptr noundef nonnull align 4 dereferenceable(16) %2)
  %3 = load float, ptr %call1, align 4
  %cmp = fcmp ogt float %1, %3
  br i1 %cmp, label %cond.true, label %lor.lhs.false

lor.lhs.false:                                    ; preds = %entry
  %4 = load ptr, ptr %aabbMax1.addr, align 8
  %call2 = call noundef nonnull align 4 dereferenceable(4) ptr @_ZNK9btVector34getXEv(ptr noundef nonnull align 4 dereferenceable(16) %4)
  %5 = load float, ptr %call2, align 4
  %6 = load ptr, ptr %aabbMin2.addr, align 8
  %call3 = call noundef nonnull align 4 dereferenceable(4) ptr @_ZNK9btVector34getXEv(ptr noundef nonnull align 4 dereferenceable(16) %6)
  %7 = load float, ptr %call3, align 4
  %cmp4 = fcmp olt float %5, %7
  br i1 %cmp4, label %cond.true, label %cond.false

cond.true:                                        ; preds = %lor.lhs.false, %entry
  br label %cond.end

cond.false:                                       ; preds = %lor.lhs.false
  %8 = load i8, ptr %overlap, align 1
  %tobool = trunc i8 %8 to i1
  br label %cond.end

cond.end:                                         ; preds = %cond.false, %cond.true
  %cond = phi i1 [ false, %cond.true ], [ %tobool, %cond.false ]
  %frombool = zext i1 %cond to i8
  store i8 %frombool, ptr %overlap, align 1
  %9 = load ptr, ptr %aabbMin1.addr, align 8
  %call5 = call noundef nonnull align 4 dereferenceable(4) ptr @_ZNK9btVector34getZEv(ptr noundef nonnull align 4 dereferenceable(16) %9)
  %10 = load float, ptr %call5, align 4
  %11 = load ptr, ptr %aabbMax2.addr, align 8
  %call6 = call noundef nonnull align 4 dereferenceable(4) ptr @_ZNK9btVector34getZEv(ptr noundef nonnull align 4 dereferenceable(16) %11)
  %12 = load float, ptr %call6, align 4
  %cmp7 = fcmp ogt float %10, %12
  br i1 %cmp7, label %cond.true12, label %lor.lhs.false8

lor.lhs.false8:                                   ; preds = %cond.end
  %13 = load ptr, ptr %aabbMax1.addr, align 8
  %call9 = call noundef nonnull align 4 dereferenceable(4) ptr @_ZNK9btVector34getZEv(ptr noundef nonnull align 4 dereferenceable(16) %13)
  %14 = load float, ptr %call9, align 4
  %15 = load ptr, ptr %aabbMin2.addr, align 8
  %call10 = call noundef nonnull align 4 dereferenceable(4) ptr @_ZNK9btVector34getZEv(ptr noundef nonnull align 4 dereferenceable(16) %15)
  %16 = load float, ptr %call10, align 4
  %cmp11 = fcmp olt float %14, %16
  br i1 %cmp11, label %cond.true12, label %cond.false13

cond.true12:                                      ; preds = %lor.lhs.false8, %cond.end
  br label %cond.end15

cond.false13:                                     ; preds = %lor.lhs.false8
  %17 = load i8, ptr %overlap, align 1
  %tobool14 = trunc i8 %17 to i1
  br label %cond.end15

cond.end15:                                       ; preds = %cond.false13, %cond.true12
  %cond16 = phi i1 [ false, %cond.true12 ], [ %tobool14, %cond.false13 ]
  %frombool17 = zext i1 %cond16 to i8
  store i8 %frombool17, ptr %overlap, align 1
  %18 = load ptr, ptr %aabbMin1.addr, align 8
  %call18 = call noundef nonnull align 4 dereferenceable(4) ptr @_ZNK9btVector34getYEv(ptr noundef nonnull align 4 dereferenceable(16) %18)
  %19 = load float, ptr %call18, align 4
  %20 = load ptr, ptr %aabbMax2.addr, align 8
  %call19 = call noundef nonnull align 4 dereferenceable(4) ptr @_ZNK9btVector34getYEv(ptr noundef nonnull align 4 dereferenceable(16) %20)
  %21 = load float, ptr %call19, align 4
  %cmp20 = fcmp ogt float %19, %21
  br i1 %cmp20, label %cond.true25, label %lor.lhs.false21

lor.lhs.false21:                                  ; preds = %cond.end15
  %22 = load ptr, ptr %aabbMax1.addr, align 8
  %call22 = call noundef nonnull align 4 dereferenceable(4) ptr @_ZNK9btVector34getYEv(ptr noundef nonnull align 4 dereferenceable(16) %22)
  %23 = load float, ptr %call22, align 4
  %24 = load ptr, ptr %aabbMin2.addr, align 8
  %call23 = call noundef nonnull align 4 dereferenceable(4) ptr @_ZNK9btVector34getYEv(ptr noundef nonnull align 4 dereferenceable(16) %24)
  %25 = load float, ptr %call23, align 4
  %cmp24 = fcmp olt float %23, %25
  br i1 %cmp24, label %cond.true25, label %cond.false26

cond.true25:                                      ; preds = %lor.lhs.false21, %cond.end15
  br label %cond.end28

cond.false26:                                     ; preds = %lor.lhs.false21
  %26 = load i8, ptr %overlap, align 1
  %tobool27 = trunc i8 %26 to i1
  br label %cond.end28

cond.end28:                                       ; preds = %cond.false26, %cond.true25
  %cond29 = phi i1 [ false, %cond.true25 ], [ %tobool27, %cond.false26 ]
  %frombool30 = zext i1 %cond29 to i8
  store i8 %frombool30, ptr %overlap, align 1
  %27 = load i8, ptr %overlap, align 1
  %tobool31 = trunc i8 %27 to i1
  ret i1 %tobool31
}

; Function Attrs: mustprogress uwtable
define dso_local void @_ZN18btSimpleBroadphase8aabbTestERK9btVector3S2_R24btBroadphaseAabbCallback(ptr noundef nonnull align 8 dereferenceable(64) %this, ptr noundef nonnull align 4 dereferenceable(16) %aabbMin, ptr noundef nonnull align 4 dereferenceable(16) %aabbMax, ptr noundef nonnull align 8 dereferenceable(8) %callback) unnamed_addr #2 align 2 {
entry:
  %this.addr = alloca ptr, align 8
  %aabbMin.addr = alloca ptr, align 8
  %aabbMax.addr = alloca ptr, align 8
  %callback.addr = alloca ptr, align 8
  %i = alloca i32, align 4
  %proxy = alloca ptr, align 8
  store ptr %this, ptr %this.addr, align 8
  store ptr %aabbMin, ptr %aabbMin.addr, align 8
  store ptr %aabbMax, ptr %aabbMax.addr, align 8
  store ptr %callback, ptr %callback.addr, align 8
  %this1 = load ptr, ptr %this.addr, align 8
  store i32 0, ptr %i, align 4
  br label %for.cond

for.cond:                                         ; preds = %for.inc, %entry
  %0 = load i32, ptr %i, align 4
  %m_LastHandleIndex = getelementptr inbounds %class.btSimpleBroadphase, ptr %this1, i32 0, i32 3
  %1 = load i32, ptr %m_LastHandleIndex, align 8
  %cmp = icmp sle i32 %0, %1
  br i1 %cmp, label %for.body, label %for.end

for.body:                                         ; preds = %for.cond
  %m_pHandles = getelementptr inbounds %class.btSimpleBroadphase, ptr %this1, i32 0, i32 4
  %2 = load ptr, ptr %m_pHandles, align 8
  %3 = load i32, ptr %i, align 4
  %idxprom = sext i32 %3 to i64
  %arrayidx = getelementptr inbounds %struct.btSimpleBroadphaseProxy, ptr %2, i64 %idxprom
  store ptr %arrayidx, ptr %proxy, align 8
  %4 = load ptr, ptr %proxy, align 8
  %m_clientObject = getelementptr inbounds %struct.btBroadphaseProxy, ptr %4, i32 0, i32 0
  %5 = load ptr, ptr %m_clientObject, align 8
  %tobool = icmp ne ptr %5, null
  br i1 %tobool, label %if.end, label %if.then

if.then:                                          ; preds = %for.body
  br label %for.inc

if.end:                                           ; preds = %for.body
  %6 = load ptr, ptr %aabbMin.addr, align 8
  %7 = load ptr, ptr %aabbMax.addr, align 8
  %8 = load ptr, ptr %proxy, align 8
  %m_aabbMin = getelementptr inbounds %struct.btBroadphaseProxy, ptr %8, i32 0, i32 4
  %9 = load ptr, ptr %proxy, align 8
  %m_aabbMax = getelementptr inbounds %struct.btBroadphaseProxy, ptr %9, i32 0, i32 5
  %call = call noundef zeroext i1 @_Z20TestAabbAgainstAabb2RK9btVector3S1_S1_S1_(ptr noundef nonnull align 4 dereferenceable(16) %6, ptr noundef nonnull align 4 dereferenceable(16) %7, ptr noundef nonnull align 4 dereferenceable(16) %m_aabbMin, ptr noundef nonnull align 4 dereferenceable(16) %m_aabbMax)
  br i1 %call, label %if.then2, label %if.end4

if.then2:                                         ; preds = %if.end
  %10 = load ptr, ptr %callback.addr, align 8
  %11 = load ptr, ptr %proxy, align 8
  %vtable = load ptr, ptr %10, align 8
  %vfn = getelementptr inbounds ptr, ptr %vtable, i64 2
  %12 = load ptr, ptr %vfn, align 8
  %call3 = call noundef zeroext i1 %12(ptr noundef nonnull align 8 dereferenceable(8) %10, ptr noundef %11)
  br label %if.end4

if.end4:                                          ; preds = %if.then2, %if.end
  br label %for.inc

for.inc:                                          ; preds = %if.end4, %if.then
  %13 = load i32, ptr %i, align 4
  %inc = add nsw i32 %13, 1
  store i32 %inc, ptr %i, align 4
  br label %for.cond, !llvm.loop !10

for.end:                                          ; preds = %for.cond
  ret void
}